; Function Attrs: mustprogress nofree nounwind memory(read, argmem: readwrite, inaccessiblemem: none) uwtable
define void @_ZN11OpenImageIO6v3_1_07Strutil6lstripENS0_17basic_string_viewIcSt11char_traitsIcEEES5_(ptr dead_on_unwind noalias writable writeonly sret(%"class.OpenImageIO::v3_1_0::basic_string_view") align 8 captures(none) %0, ptr noundef readonly captures(none) %1, ptr noundef captures(none) %2) local_unnamed_addr #26 personality ptr @__gxx_personality_v0 {
  %4 = getelementptr inbounds nuw i8, ptr %2, i64 8
  %5 = load i64, ptr %4, align 8, !tbaa !64
  %6 = icmp eq i64 %5, 0
  br i1 %6, label %7, label %._crit_edge

._crit_edge:                                      ; preds = %3
  %.pre = load ptr, ptr %2, align 8, !tbaa !67
  br label %8

7:                                                ; preds = %3
  store ptr @.str.36, ptr %2, align 8, !tbaa !13
  store i64 6, ptr %4, align 8, !tbaa !86
  br label %8

8:                                                ; preds = %._crit_edge, %7
  %9 = phi ptr [ @.str.36, %7 ], [ %.pre, %._crit_edge ]
  %10 = phi i64 [ 6, %7 ], [ %5, %._crit_edge ]
  %11 = getelementptr inbounds nuw i8, ptr %1, i64 8
  %12 = load i64, ptr %11, align 8, !tbaa !64
  %.not.i.not = icmp eq i64 %12, 0
  br i1 %.not.i.not, label %_ZNK11OpenImageIO6v3_1_017basic_string_viewIcSt11char_traitsIcEE17find_first_not_ofES4_m.exit.thread, label %.lr.ph.i.i

.lr.ph.i.i:                                       ; preds = %8
  %13 = load ptr, ptr %1, align 8, !tbaa !67
  %14 = getelementptr inbounds nuw i8, ptr %13, i64 %12
  br label %_ZNSt11char_traitsIcE4findEPKcmRS1_.exit.i.i

_ZNSt11char_traitsIcE4findEPKcmRS1_.exit.i.i:     ; preds = %.lr.ph.i.i, %18
  %.0713.i.i = phi ptr [ %19, %18 ], [ %13, %.lr.ph.i.i ]
  %15 = load i8, ptr %.0713.i.i, align 1, !tbaa !3
  %16 = sext i8 %15 to i32
  %17 = tail call ptr @memchr(ptr noundef nonnull dereferenceable(1) %9, i32 noundef %16, i64 noundef %10) #16
  %.not9.i.i = icmp eq ptr %17, null
  br i1 %.not9.i.i, label %_ZNK11OpenImageIO6v3_1_017basic_string_viewIcSt11char_traitsIcEE11find_not_ofIPKcEET_S8_S8_S4_.exit.i, label %18

18:                                               ; preds = %_ZNSt11char_traitsIcE4findEPKcmRS1_.exit.i.i
  %19 = getelementptr inbounds nuw i8, ptr %.0713.i.i, i64 1
  %.not.i.i = icmp eq ptr %19, %14
  br i1 %.not.i.i, label %_ZNK11OpenImageIO6v3_1_017basic_string_viewIcSt11char_traitsIcEE17find_first_not_ofES4_m.exit.thread, label %_ZNSt11char_traitsIcE4findEPKcmRS1_.exit.i.i, !llvm.loop !264

_ZNK11OpenImageIO6v3_1_017basic_string_viewIcSt11char_traitsIcEE11find_not_ofIPKcEET_S8_S8_S4_.exit.i: ; preds = %_ZNSt11char_traitsIcE4findEPKcmRS1_.exit.i.i
  %20 = icmp eq ptr %.0713.i.i, %14
  br i1 %20, label %_ZNK11OpenImageIO6v3_1_017basic_string_viewIcSt11char_traitsIcEE17find_first_not_ofES4_m.exit.thread, label %_ZNK11OpenImageIO6v3_1_017basic_string_viewIcSt11char_traitsIcEE17find_first_not_ofES4_m.exit

_ZNK11OpenImageIO6v3_1_017basic_string_viewIcSt11char_traitsIcEE17find_first_not_ofES4_m.exit: ; preds = %_ZNK11OpenImageIO6v3_1_017basic_string_viewIcSt11char_traitsIcEE11find_not_ofIPKcEET_S8_S8_S4_.exit.i
  %21 = ptrtoint ptr %.0713.i.i to i64
  %22 = ptrtoint ptr %13 to i64
  %23 = sub i64 %21, %22
  %.not.i1 = icmp ult i64 %23, %12
  br i1 %.not.i1, label %24, label %_ZNK11OpenImageIO6v3_1_017basic_string_viewIcSt11char_traitsIcEE17find_first_not_ofES4_m.exit.thread

_ZNK11OpenImageIO6v3_1_017basic_string_viewIcSt11char_traitsIcEE17find_first_not_ofES4_m.exit.thread: ; preds = %18, %_ZNK11OpenImageIO6v3_1_017basic_string_viewIcSt11char_traitsIcEE11find_not_ofIPKcEET_S8_S8_S4_.exit.i, %8, %_ZNK11OpenImageIO6v3_1_017basic_string_viewIcSt11char_traitsIcEE17find_first_not_ofES4_m.exit
  tail call void @llvm.memset.p0.i64(ptr noundef nonnull align 8 dereferenceable(16) %0, i8 0, i64 16, i1 false), !alias.scope !265
  br label %_ZNK11OpenImageIO6v3_1_017basic_string_viewIcSt11char_traitsIcEE6substrEmm.exit

24:                                               ; preds = %_ZNK11OpenImageIO6v3_1_017basic_string_viewIcSt11char_traitsIcEE17find_first_not_ofES4_m.exit
  %25 = sub nuw i64 %12, %23
  %26 = getelementptr inbounds nuw i8, ptr %13, i64 %23
  store ptr %26, ptr %0, align 8, !tbaa !67, !alias.scope !265
  %27 = getelementptr inbounds nuw i8, ptr %0, i64 8
  store i64 %25, ptr %27, align 8, !tbaa !64, !alias.scope !265
  br label %_ZNK11OpenImageIO6v3_1_017basic_string_viewIcSt11char_traitsIcEE6substrEmm.exit

_ZNK11OpenImageIO6v3_1_017basic_string_viewIcSt11char_traitsIcEE6substrEmm.exit: ; preds = %_ZNK11OpenImageIO6v3_1_017basic_string_viewIcSt11char_traitsIcEE17find_first_not_ofES4_m.exit.thread, %24
  ret void
}